target datalayout = "e-m:e-p270:32:32-p271:32:32-p272:64:64-i64:64-i128:128-f80:128-n8:16:32:64-S128"
target triple = "x86_64-pc-linux-gnu"

%"class.boost::fibers::context" = type { ptr, %"struct.std::atomic", %"class.boost::intrusive::slist_member_hook", %"class.boost::fibers::detail::spinlock_ttas", i8, %"class.boost::fibers::wait_queue", %"struct.std::atomic", ptr, %"class.std::map", %"class.boost::intrusive::set_member_hook", %"class.boost::fibers::waker", %"class.boost::intrusive::list_member_hook", %"class.boost::intrusive::slist_member_hook.7", %"class.boost::intrusive::list_member_hook.8", ptr, %"class.boost::context::fiber", %"class.std::chrono::time_point", i32, i32 }
%"class.boost::intrusive::slist_member_hook" = type { %"class.boost::intrusive::generic_hook" }
%"class.boost::intrusive::generic_hook" = type { %"struct.boost::intrusive::slist_node" }
%"struct.boost::intrusive::slist_node" = type { ptr }
%"class.boost::fibers::detail::spinlock_ttas" = type { %"struct.std::atomic.2" }
%"struct.std::atomic.2" = type { i32 }
%"class.boost::fibers::wait_queue" = type { %"class.boost::intrusive::slist" }
%"class.boost::intrusive::slist" = type { %"class.boost::intrusive::slist_impl" }
%"class.boost::intrusive::slist_impl" = type { %"struct.boost::intrusive::slist_impl<boost::intrusive::mhtraits<boost::fibers::waker_with_hook, boost::intrusive::slist_member_hook<>, &boost::fibers::waker_with_hook::waker_queue_hook_>, unsigned long, 4, void>::data_t" }
%"struct.boost::intrusive::slist_impl<boost::intrusive::mhtraits<boost::fibers::waker_with_hook, boost::intrusive::slist_member_hook<>, &boost::fibers::waker_with_hook::waker_queue_hook_>, unsigned long, 4, void>::data_t" = type { %"struct.boost::intrusive::slist_impl<boost::intrusive::mhtraits<boost::fibers::waker_with_hook, boost::intrusive::slist_member_hook<>, &boost::fibers::waker_with_hook::waker_queue_hook_>, unsigned long, 4, void>::root_plus_size" }
%"struct.boost::intrusive::slist_impl<boost::intrusive::mhtraits<boost::fibers::waker_with_hook, boost::intrusive::slist_member_hook<>, &boost::fibers::waker_with_hook::waker_queue_hook_>, unsigned long, 4, void>::root_plus_size" = type { %"struct.boost::intrusive::header_holder_plus_last" }
%"struct.boost::intrusive::header_holder_plus_last" = type { %"struct.boost::intrusive::detail::default_header_holder", ptr }
%"struct.boost::intrusive::detail::default_header_holder" = type { %"struct.boost::intrusive::slist_node" }
%"struct.std::atomic" = type { %"struct.std::__atomic_base" }
%"struct.std::__atomic_base" = type { i64 }
%"class.std::map" = type { %"class.std::_Rb_tree" }
%"class.std::_Rb_tree" = type { %"struct.std::_Rb_tree<unsigned long, std::pair<const unsigned long, boost::fibers::context::fss_data>, std::_Select1st<std::pair<const unsigned long, boost::fibers::context::fss_data>>, std::less<unsigned long>>::_Rb_tree_impl" }
%"struct.std::_Rb_tree<unsigned long, std::pair<const unsigned long, boost::fibers::context::fss_data>, std::_Select1st<std::pair<const unsigned long, boost::fibers::context::fss_data>>, std::less<unsigned long>>::_Rb_tree_impl" = type { [8 x i8], %"struct.std::_Rb_tree_header" }
%"struct.std::_Rb_tree_header" = type { %"struct.std::_Rb_tree_node_base", i64 }
%"struct.std::_Rb_tree_node_base" = type { i32, ptr, ptr, ptr }
%"class.boost::intrusive::set_member_hook" = type { %"class.boost::intrusive::generic_hook.3" }
%"class.boost::intrusive::generic_hook.3" = type { %"struct.boost::intrusive::rbtree_node" }
%"struct.boost::intrusive::rbtree_node" = type { ptr, ptr, ptr, i32 }
%"class.boost::fibers::waker" = type { ptr, i64 }
%"class.boost::intrusive::list_member_hook" = type { %"class.boost::intrusive::generic_hook.5" }
%"class.boost::intrusive::generic_hook.5" = type { %"struct.boost::intrusive::list_node" }
%"struct.boost::intrusive::list_node" = type { ptr, ptr }
%"class.boost::intrusive::slist_member_hook.7" = type { %"class.boost::intrusive::generic_hook" }
%"class.boost::intrusive::list_member_hook.8" = type { %"class.boost::intrusive::generic_hook.5" }
%"class.boost::context::fiber" = type { ptr }
%"class.std::chrono::time_point" = type { %"class.std::chrono::duration" }
%"class.std::chrono::duration" = type { i64 }

; Function Attrs: inlinehint mustprogress nounwind uwtable
define linkonce_odr hidden noundef ptr @_ZN5boost11move_detail9addressofINS_9intrusive11rbtree_nodeIPvEEEEPT_RS6_(ptr noundef nonnull align 8 dereferenceable(32) %0) #9 comdat {
  %2 = alloca ptr, align 8
  store ptr %0, ptr %2, align 8, !tbaa !3
  %3 = load ptr, ptr %2, align 8, !tbaa !3
  ret ptr %3
}

; Function Attrs: inlinehint mustprogress nounwind uwtable
define linkonce_odr hidden void @_ZN5boost9intrusive31default_rbtree_node_traits_implIPvE9set_rightEPNS0_11rbtree_nodeIS2_EES6_(ptr noundef %0, ptr noundef %1) #9 comdat align 2 {
  %3 = alloca ptr, align 8
  %4 = alloca ptr, align 8
  store ptr %0, ptr %3, align 8, !tbaa !3
  store ptr %1, ptr %4, align 8, !tbaa !3
  %5 = load ptr, ptr %4, align 8, !tbaa !3
  %6 = load ptr, ptr %3, align 8, !tbaa !3
  %7 = getelementptr inbounds nuw %"struct.boost::intrusive::rbtree_node", ptr %6, i32 0, i32 2
  store ptr %5, ptr %7, align 8, !tbaa !129
  ret void
}

; Function Attrs: inlinehint mustprogress nounwind uwtable
define linkonce_odr hidden void @_ZN5boost9intrusive31default_rbtree_node_traits_implIPvE8set_leftEPNS0_11rbtree_nodeIS2_EES6_(ptr noundef %0, ptr noundef %1) #9 comdat align 2 {
  %3 = alloca ptr, align 8
  %4 = alloca ptr, align 8
  store ptr %0, ptr %3, align 8, !tbaa !3
  store ptr %1, ptr %4, align 8, !tbaa !3
  %5 = load ptr, ptr %4, align 8, !tbaa !3
  %6 = load ptr, ptr %3, align 8, !tbaa !3
  %7 = getelementptr inbounds nuw %"struct.boost::intrusive::rbtree_node", ptr %6, i32 0, i32 1
  store ptr %5, ptr %7, align 8, !tbaa !128
  ret void
}

; Function Attrs: inlinehint mustprogress nounwind uwtable
define linkonce_odr hidden void @_ZN5boost9intrusive31default_rbtree_node_traits_implIPvE10set_parentEPNS0_11rbtree_nodeIS2_EES6_(ptr noundef %0, ptr noundef %1) #9 comdat align 2 {
  %3 = alloca ptr, align 8
  %4 = alloca ptr, align 8
  store ptr %0, ptr %3, align 8, !tbaa !3
  store ptr %1, ptr %4, align 8, !tbaa !3
  %5 = load ptr, ptr %4, align 8, !tbaa !3
  %6 = load ptr, ptr %3, align 8, !tbaa !3
  %7 = getelementptr inbounds nuw %"struct.boost::intrusive::rbtree_node", ptr %6, i32 0, i32 0
  store ptr %5, ptr %7, align 8, !tbaa !127
  ret void
}

; Function Attrs: inlinehint mustprogress nounwind uwtable
define linkonce_odr hidden noundef ptr @_ZN5boost9intrusive31default_rbtree_node_traits_implIPvE9get_rightEPKNS0_11rbtree_nodeIS2_EE(ptr noundef %0) #9 comdat align 2 {
  %2 = alloca ptr, align 8
  store ptr %0, ptr %2, align 8, !tbaa !3
  %3 = load ptr, ptr %2, align 8, !tbaa !3
  %4 = getelementptr inbounds nuw %"struct.boost::intrusive::rbtree_node", ptr %3, i32 0, i32 2
  %5 = load ptr, ptr %4, align 8, !tbaa !129
  ret ptr %5
}

; Function Attrs: inlinehint mustprogress nounwind uwtable
define linkonce_odr hidden noundef ptr @_ZN5boost9intrusive31default_rbtree_node_traits_implIPvE8get_leftEPKNS0_11rbtree_nodeIS2_EE(ptr noundef %0) #9 comdat align 2 {
  %2 = alloca ptr, align 8
  store ptr %0, ptr %2, align 8, !tbaa !3
  %3 = load ptr, ptr %2, align 8, !tbaa !3
  %4 = getelementptr inbounds nuw %"struct.boost::intrusive::rbtree_node", ptr %3, i32 0, i32 1
  %5 = load ptr, ptr %4, align 8, !tbaa !128
  ret ptr %5
}

; Function Attrs: inlinehint mustprogress nounwind uwtable
define linkonce_odr hidden noundef ptr @_ZN5boost9intrusive31default_rbtree_node_traits_implIPvE10get_parentEPKNS0_11rbtree_nodeIS2_EE(ptr noundef %0) #9 comdat align 2 {
  %2 = alloca ptr, align 8
  store ptr %0, ptr %2, align 8, !tbaa !3
  %3 = load ptr, ptr %2, align 8, !tbaa !3
  %4 = getelementptr inbounds nuw %"struct.boost::intrusive::rbtree_node", ptr %3, i32 0, i32 0
  %5 = load ptr, ptr %4, align 8, !tbaa !127
  ret ptr %5
}

; Function Attrs: inlinehint mustprogress nounwind uwtable
define linkonce_odr hidden noundef ptr @_ZN5boost9intrusive14pointer_traitsIPNS0_11rbtree_nodeIPvEEE10pointer_toERS4_(ptr noundef nonnull align 8 dereferenceable(32) %0) #9 comdat align 2 {
  %2 = alloca ptr, align 8
  store ptr %0, ptr %2, align 8, !tbaa !3
  %3 = load ptr, ptr %2, align 8, !tbaa !3
  %4 = call noundef ptr @_ZN5boost11move_detail9addressofINS_9intrusive11rbtree_nodeIPvEEEEPT_RS6_(ptr noundef nonnull align 8 dereferenceable(32) %3) #3
  ret ptr %4
}

; Function Attrs: noinline noreturn nounwind uwtable
define linkonce_odr hidden void @__clang_call_terminate(ptr noundef %0) #8 comdat {
  %2 = call ptr @__cxa_begin_catch(ptr %0) #3
  call void @_ZSt9terminatev() #24
  unreachable
}

; Function Attrs: mustprogress nounwind uwtable
define linkonce_odr hidden void @_ZN5boost9intrusive17bstree_algorithmsINS0_18rbtree_node_traitsIPvLb0EEEE4initEPNS0_11rbtree_nodeIS3_EE(ptr noundef %0) #4 comdat align 2 personality ptr @__gxx_personality_v0 {
  %2 = alloca ptr, align 8
  store ptr %0, ptr %2, align 8, !tbaa !3
  %3 = load ptr, ptr %2, align 8, !tbaa !3
  invoke void @_ZN5boost9intrusive31default_rbtree_node_traits_implIPvE10set_parentEPNS0_11rbtree_nodeIS2_EES6_(ptr noundef %3, ptr noundef null)
          to label %4 unwind label %9

4:                                                ; preds = %1
  %5 = load ptr, ptr %2, align 8, !tbaa !3
  invoke void @_ZN5boost9intrusive31default_rbtree_node_traits_implIPvE8set_leftEPNS0_11rbtree_nodeIS2_EES6_(ptr noundef %5, ptr noundef null)
          to label %6 unwind label %9

6:                                                ; preds = %4
  %7 = load ptr, ptr %2, align 8, !tbaa !3
  invoke void @_ZN5boost9intrusive31default_rbtree_node_traits_implIPvE9set_rightEPNS0_11rbtree_nodeIS2_EES6_(ptr noundef %7, ptr noundef null)
          to label %8 unwind label %9

8:                                                ; preds = %6
  ret void

9:                                                ; preds = %6, %4, %1
  %10 = landingpad { ptr, i32 }
          catch ptr null
  %11 = extractvalue { ptr, i32 } %10, 0
  call void @__clang_call_terminate(ptr %11) #24
  unreachable
}

; Function Attrs: mustprogress uwtable
define linkonce_odr hidden noundef zeroext i1 @_ZN5boost9intrusive17bstree_algorithmsINS0_18rbtree_node_traitsIPvLb0EEEE6initedEPKNS0_11rbtree_nodeIS3_EE(ptr noundef %0) #7 comdat align 2 {
  %2 = alloca ptr, align 8
  store ptr %0, ptr %2, align 8, !tbaa !3
  %3 = load ptr, ptr %2, align 8, !tbaa !3
  %4 = call noundef ptr @_ZN5boost9intrusive31default_rbtree_node_traits_implIPvE10get_parentEPKNS0_11rbtree_nodeIS2_EE(ptr noundef %3)
  %5 = icmp ne ptr %4, null
  br i1 %5, label %15, label %6

6:                                                ; preds = %1
  %7 = load ptr, ptr %2, align 8, !tbaa !3
  %8 = call noundef ptr @_ZN5boost9intrusive31default_rbtree_node_traits_implIPvE8get_leftEPKNS0_11rbtree_nodeIS2_EE(ptr noundef %7)
  %9 = icmp ne ptr %8, null
  br i1 %9, label %15, label %10

10:                                               ; preds = %6
  %11 = load ptr, ptr %2, align 8, !tbaa !3
  %12 = call noundef ptr @_ZN5boost9intrusive31default_rbtree_node_traits_implIPvE9get_rightEPKNS0_11rbtree_nodeIS2_EE(ptr noundef %11)
  %13 = icmp ne ptr %12, null
  %14 = xor i1 %13, true
  br label %15

15:                                               ; preds = %10, %6, %1
  %16 = phi i1 [ false, %6 ], [ false, %1 ], [ %14, %10 ]
  ret i1 %16
}

; Function Attrs: inlinehint mustprogress nounwind uwtable
define linkonce_odr hidden noundef ptr @_ZN5boost9intrusive12generic_hookILNS0_10algo_typesE5ENS0_18rbtree_node_traitsIPvLb0EEENS0_10member_tagELNS0_14link_mode_typeE2ELNS0_14base_hook_typeE0EE8this_ptrEv(ptr noundef nonnull align 8 dereferenceable(32) %0) #9 comdat align 2 {
  %2 = alloca ptr, align 8
  store ptr %0, ptr %2, align 8, !tbaa !3
  %3 = load ptr, ptr %2, align 8
  %4 = call noundef ptr @_ZN5boost9intrusive14pointer_traitsIPNS0_11rbtree_nodeIPvEEE10pointer_toERS4_(ptr noundef nonnull align 8 dereferenceable(32) %3) #3
  ret ptr %4
}

; Function Attrs: inlinehint mustprogress nounwind uwtable
define linkonce_odr hidden void @_ZN5boost9intrusive12generic_hookILNS0_10algo_typesE5ENS0_18rbtree_node_traitsIPvLb0EEENS0_10member_tagELNS0_14link_mode_typeE2ELNS0_14base_hook_typeE0EE6unlinkEv(ptr noundef nonnull align 8 dereferenceable(32) %0) #9 comdat align 2 personality ptr @__gxx_personality_v0 {
  %2 = alloca ptr, align 8
  %3 = alloca ptr, align 8
  store ptr %0, ptr %2, align 8, !tbaa !3
  %4 = load ptr, ptr %2, align 8
  call void @llvm.lifetime.start.p0(i64 8, ptr %3) #3
  %5 = call noundef ptr @_ZN5boost9intrusive12generic_hookILNS0_10algo_typesE5ENS0_18rbtree_node_traitsIPvLb0EEENS0_10member_tagELNS0_14link_mode_typeE2ELNS0_14base_hook_typeE0EE8this_ptrEv(ptr noundef nonnull align 8 dereferenceable(32) %4) #3
  store ptr %5, ptr %3, align 8, !tbaa !3
  %6 = load ptr, ptr %3, align 8, !tbaa !3
  %7 = invoke noundef zeroext i1 @_ZN5boost9intrusive17bstree_algorithmsINS0_18rbtree_node_traitsIPvLb0EEEE6initedEPKNS0_11rbtree_nodeIS3_EE(ptr noundef %6)
          to label %8 unwind label %13

8:                                                ; preds = %1
  br i1 %7, label %12, label %9

9:                                                ; preds = %8
  %10 = load ptr, ptr %3, align 8, !tbaa !3
  call void @_ZN5boost9intrusive17rbtree_algorithmsINS0_18rbtree_node_traitsIPvLb0EEEE6unlinkEPNS0_11rbtree_nodeIS3_EE(ptr noundef %10) #3
  %11 = load ptr, ptr %3, align 8, !tbaa !3
  call void @_ZN5boost9intrusive17bstree_algorithmsINS0_18rbtree_node_traitsIPvLb0EEEE4initEPNS0_11rbtree_nodeIS3_EE(ptr noundef %11) #3
  br label %12

12:                                               ; preds = %9, %8
  call void @llvm.lifetime.end.p0(i64 8, ptr %3) #3
  ret void

13:                                               ; preds = %1
  %14 = landingpad { ptr, i32 }
          catch ptr null
  %15 = extractvalue { ptr, i32 } %14, 0
  call void @__clang_call_terminate(ptr %15) #24
  unreachable
}

; Function Attrs: mustprogress nounwind uwtable
define void @_ZN5boost6fibers7context12sleep_unlinkEv(ptr noundef nonnull align 8 dereferenceable(232) %0) #4 align 2 {
  %2 = alloca ptr, align 8
  store ptr %0, ptr %2, align 8, !tbaa !3
  %3 = load ptr, ptr %2, align 8
  %4 = getelementptr inbounds nuw %"class.boost::fibers::context", ptr %3, i32 0, i32 9
  call void @_ZN5boost9intrusive12generic_hookILNS0_10algo_typesE5ENS0_18rbtree_node_traitsIPvLb0EEENS0_10member_tagELNS0_14link_mode_typeE2ELNS0_14base_hook_typeE0EE6unlinkEv(ptr noundef nonnull align 8 dereferenceable(32) %4) #3
  ret void
}