; Function Attrs: mustprogress nounwind uwtable
define void @_ZN5boost6fibers7context12sleep_unlinkEv(ptr noundef nonnull align 8 dereferenceable(232) %0) local_unnamed_addr #3 align 2 personality ptr @__gxx_personality_v0 {
  %2 = getelementptr inbounds nuw i8, ptr %0, i64 112
  %3 = load ptr, ptr %2, align 8, !tbaa !96
  %.not.i.i = icmp eq ptr %3, null
  %4 = getelementptr inbounds nuw i8, ptr %0, i64 120
  %5 = load ptr, ptr %4, align 8
  %.not3.i.i = icmp eq ptr %5, null
  %or.cond.i = select i1 %.not.i.i, i1 %.not3.i.i, i1 false
  %6 = getelementptr inbounds nuw i8, ptr %0, i64 128
  %7 = load ptr, ptr %6, align 8
  %.not4.i.i = icmp eq ptr %7, null
  %or.cond6.i = select i1 %or.cond.i, i1 %.not4.i.i, i1 false
  br i1 %or.cond6.i, label %_ZN5boost9intrusive12generic_hookILNS0_10algo_typesE5ENS0_18rbtree_node_traitsIPvLb0EEENS0_10member_tagELNS0_14link_mode_typeE2ELNS0_14base_hook_typeE0EE6unlinkEv.exit, label %_ZN5boost9intrusive17bstree_algorithmsINS0_18rbtree_node_traitsIPvLb0EEEE6initedEPKNS0_11rbtree_nodeIS3_EE.exit.thread.i

_ZN5boost9intrusive17bstree_algorithmsINS0_18rbtree_node_traitsIPvLb0EEEE6initedEPKNS0_11rbtree_nodeIS3_EE.exit.thread.i: ; preds = %1
  tail call void @_ZN5boost9intrusive17rbtree_algorithmsINS0_18rbtree_node_traitsIPvLb0EEEE6unlinkEPNS0_11rbtree_nodeIS3_EE(ptr noundef nonnull align 8 dereferenceable(32) %2) #8
  tail call void @llvm.memset.p0.i64(ptr noundef nonnull align 8 dereferenceable(32) %2, i8 0, i64 24, i1 false)
  br label %_ZN5boost9intrusive12generic_hookILNS0_10algo_typesE5ENS0_18rbtree_node_traitsIPvLb0EEENS0_10member_tagELNS0_14link_mode_typeE2ELNS0_14base_hook_typeE0EE6unlinkEv.exit

_ZN5boost9intrusive12generic_hookILNS0_10algo_typesE5ENS0_18rbtree_node_traitsIPvLb0EEENS0_10member_tagELNS0_14link_mode_typeE2ELNS0_14base_hook_typeE0EE6unlinkEv.exit: ; preds = %1, %_ZN5boost9intrusive17bstree_algorithmsINS0_18rbtree_node_traitsIPvLb0EEEE6initedEPKNS0_11rbtree_nodeIS3_EE.exit.thread.i
  ret void
}